target datalayout = "e-m:e-p270:32:32-p271:32:32-p272:64:64-i64:64-i128:128-f80:128-n8:16:32:64-S128"
target triple = "x86_64-pc-linux-gnu"

%struct.URLContext = type { ptr, ptr, ptr, ptr, i32, i32, i32, i32, %struct.AVIOInterruptCB, i64, ptr, ptr, i32 }
%struct.AVIOInterruptCB = type { ptr, ptr }
%struct.AVDictionaryEntry = type { ptr, ptr }
%struct.URLProtocol = type { ptr, ptr, ptr, ptr, ptr, ptr, ptr, ptr, ptr, ptr, ptr, ptr, ptr, ptr, ptr, ptr, i32, i32, ptr, ptr, ptr, ptr, ptr, ptr, ptr }

@.str.1 = private unnamed_addr constant [19 x i8] c"protocol_whitelist\00", align 1
@.str.2 = private unnamed_addr constant [30 x i8] c"Assertion %s failed at %s:%d\0A\00", align 1
@.str.4 = private unnamed_addr constant [19 x i8] c"libavformat/avio.c\00", align 1
@.str.5 = private unnamed_addr constant [19 x i8] c"protocol_blacklist\00", align 1
@.str.13 = private unnamed_addr constant [110 x i8] c"!whitelist || !(e=av_dict_get(*options, \22protocol_whitelist\22, ((void*)0), 0)) || !strcmp(whitelist, e->value)\00", align 1
@.str.14 = private unnamed_addr constant [110 x i8] c"!blacklist || !(e=av_dict_get(*options, \22protocol_blacklist\22, ((void*)0), 0)) || !strcmp(blacklist, e->value)\00", align 1

; Function Attrs: nounwind uwtable
define i32 @ffurl_open_whitelist(ptr noundef %0, ptr noundef %1, i32 noundef %2, ptr noundef %3, ptr noundef %4, ptr noundef %5, ptr noundef %6, ptr noundef %7) #1 {
  %9 = alloca i32, align 4
  %10 = alloca ptr, align 8
  %11 = alloca ptr, align 8
  %12 = alloca i32, align 4
  %13 = alloca ptr, align 8
  %14 = alloca ptr, align 8
  %15 = alloca ptr, align 8
  %16 = alloca ptr, align 8
  %17 = alloca ptr, align 8
  %18 = alloca ptr, align 8
  %19 = alloca ptr, align 8
  %20 = alloca i32, align 4
  %21 = alloca i32, align 4
  store ptr %0, ptr %10, align 8, !tbaa !48
  store ptr %1, ptr %11, align 8, !tbaa !20
  store i32 %2, ptr %12, align 4, !tbaa !21
  store ptr %3, ptr %13, align 8, !tbaa !69
  store ptr %4, ptr %14, align 8, !tbaa !28
  store ptr %5, ptr %15, align 8, !tbaa !20
  store ptr %6, ptr %16, align 8, !tbaa !20
  store ptr %7, ptr %17, align 8, !tbaa !22
  call void @llvm.lifetime.start.p0(i64 8, ptr %18) #10
  store ptr null, ptr %18, align 8, !tbaa !30
  call void @llvm.lifetime.start.p0(i64 8, ptr %19) #10
  call void @llvm.lifetime.start.p0(i64 4, ptr %20) #10
  %22 = load ptr, ptr %10, align 8, !tbaa !48
  %23 = load ptr, ptr %11, align 8, !tbaa !20
  %24 = load i32, ptr %12, align 4, !tbaa !21
  %25 = load ptr, ptr %13, align 8, !tbaa !69
  %26 = call i32 @ffurl_alloc(ptr noundef %22, ptr noundef %23, i32 noundef %24, ptr noundef %25)
  store i32 %26, ptr %20, align 4, !tbaa !21
  %27 = load i32, ptr %20, align 4, !tbaa !21
  %28 = icmp slt i32 %27, 0
  br i1 %28, label %29, label %31

29:                                               ; preds = %8
  %30 = load i32, ptr %20, align 4, !tbaa !21
  store i32 %30, ptr %9, align 4
  store i32 1, ptr %21, align 4
  br label %147

31:                                               ; preds = %8
  %32 = load ptr, ptr %17, align 8, !tbaa !22
  %33 = icmp ne ptr %32, null
  br i1 %33, label %34, label %43

34:                                               ; preds = %31
  %35 = load ptr, ptr %10, align 8, !tbaa !48
  %36 = load ptr, ptr %35, align 8, !tbaa !22
  %37 = load ptr, ptr %17, align 8, !tbaa !22
  %38 = call i32 @av_opt_copy(ptr noundef %36, ptr noundef %37)
  store i32 %38, ptr %20, align 4, !tbaa !21
  %39 = load i32, ptr %20, align 4, !tbaa !21
  %40 = icmp slt i32 %39, 0
  br i1 %40, label %41, label %42

41:                                               ; preds = %34
  br label %143

42:                                               ; preds = %34
  br label %43

43:                                               ; preds = %42, %31
  %44 = load ptr, ptr %14, align 8, !tbaa !28
  %45 = icmp ne ptr %44, null
  br i1 %45, label %46, label %53

46:                                               ; preds = %43
  %47 = load ptr, ptr %10, align 8, !tbaa !48
  %48 = load ptr, ptr %47, align 8, !tbaa !22
  %49 = load ptr, ptr %14, align 8, !tbaa !28
  %50 = call i32 @av_opt_set_dict(ptr noundef %48, ptr noundef %49)
  store i32 %50, ptr %20, align 4, !tbaa !21
  %51 = icmp slt i32 %50, 0
  br i1 %51, label %52, label %53

52:                                               ; preds = %46
  br label %143

53:                                               ; preds = %46, %43
  %54 = load ptr, ptr %14, align 8, !tbaa !28
  %55 = icmp ne ptr %54, null
  br i1 %55, label %56, label %73

56:                                               ; preds = %53
  %57 = load ptr, ptr %10, align 8, !tbaa !48
  %58 = load ptr, ptr %57, align 8, !tbaa !22
  %59 = getelementptr inbounds nuw %struct.URLContext, ptr %58, i32 0, i32 1
  %60 = load ptr, ptr %59, align 8, !tbaa !38
  %61 = getelementptr inbounds nuw %struct.URLProtocol, ptr %60, i32 0, i32 15
  %62 = load ptr, ptr %61, align 8, !tbaa !83
  %63 = icmp ne ptr %62, null
  br i1 %63, label %64, label %73

64:                                               ; preds = %56
  %65 = load ptr, ptr %10, align 8, !tbaa !48
  %66 = load ptr, ptr %65, align 8, !tbaa !22
  %67 = getelementptr inbounds nuw %struct.URLContext, ptr %66, i32 0, i32 2
  %68 = load ptr, ptr %67, align 8, !tbaa !82
  %69 = load ptr, ptr %14, align 8, !tbaa !28
  %70 = call i32 @av_opt_set_dict(ptr noundef %68, ptr noundef %69)
  store i32 %70, ptr %20, align 4, !tbaa !21
  %71 = icmp slt i32 %70, 0
  br i1 %71, label %72, label %73

72:                                               ; preds = %64
  br label %143

73:                                               ; preds = %64, %56, %53
  %74 = load ptr, ptr %14, align 8, !tbaa !28
  %75 = icmp ne ptr %74, null
  br i1 %75, label %77, label %76

76:                                               ; preds = %73
  store ptr %18, ptr %14, align 8, !tbaa !28
  br label %77

77:                                               ; preds = %76, %73
  br label %78

78:                                               ; preds = %77
  %79 = load ptr, ptr %15, align 8, !tbaa !20
  %80 = icmp ne ptr %79, null
  br i1 %80, label %81, label %94

81:                                               ; preds = %78
  %82 = load ptr, ptr %14, align 8, !tbaa !28
  %83 = load ptr, ptr %82, align 8, !tbaa !30
  %84 = call ptr @av_dict_get(ptr noundef %83, ptr noundef @.str.1, ptr noundef null, i32 noundef 0)
  store ptr %84, ptr %19, align 8, !tbaa !32
  %85 = icmp ne ptr %84, null
  br i1 %85, label %86, label %94

86:                                               ; preds = %81
  %87 = load ptr, ptr %15, align 8, !tbaa !20
  %88 = load ptr, ptr %19, align 8, !tbaa !32
  %89 = getelementptr inbounds nuw %struct.AVDictionaryEntry, ptr %88, i32 0, i32 1
  %90 = load ptr, ptr %89, align 8, !tbaa !35
  %91 = call i32 @strcmp(ptr noundef %87, ptr noundef %90) #11
  %92 = icmp ne i32 %91, 0
  br i1 %92, label %93, label %94

93:                                               ; preds = %86
  call void (ptr, i32, ptr, ...) @av_log(ptr noundef null, i32 noundef 0, ptr noundef @.str.2, ptr noundef @.str.13, ptr noundef @.str.4, i32 noundef 389)
  call void @abort() #12
  unreachable

94:                                               ; preds = %86, %81, %78
  br label %95

95:                                               ; preds = %94
  br label %96

96:                                               ; preds = %95
  br label %97

97:                                               ; preds = %96
  %98 = load ptr, ptr %16, align 8, !tbaa !20
  %99 = icmp ne ptr %98, null
  br i1 %99, label %100, label %113

100:                                              ; preds = %97
  %101 = load ptr, ptr %14, align 8, !tbaa !28
  %102 = load ptr, ptr %101, align 8, !tbaa !30
  %103 = call ptr @av_dict_get(ptr noundef %102, ptr noundef @.str.5, ptr noundef null, i32 noundef 0)
  store ptr %103, ptr %19, align 8, !tbaa !32
  %104 = icmp ne ptr %103, null
  br i1 %104, label %105, label %113

105:                                              ; preds = %100
  %106 = load ptr, ptr %16, align 8, !tbaa !20
  %107 = load ptr, ptr %19, align 8, !tbaa !32
  %108 = getelementptr inbounds nuw %struct.AVDictionaryEntry, ptr %107, i32 0, i32 1
  %109 = load ptr, ptr %108, align 8, !tbaa !35
  %110 = call i32 @strcmp(ptr noundef %106, ptr noundef %109) #11
  %111 = icmp ne i32 %110, 0
  br i1 %111, label %112, label %113

112:                                              ; preds = %105
  call void (ptr, i32, ptr, ...) @av_log(ptr noundef null, i32 noundef 0, ptr noundef @.str.2, ptr noundef @.str.14, ptr noundef @.str.4, i32 noundef 392)
  call void @abort() #12
  unreachable

113:                                              ; preds = %105, %100, %97
  br label %114

114:                                              ; preds = %113
  br label %115

115:                                              ; preds = %114
  %116 = load ptr, ptr %14, align 8, !tbaa !28
  %117 = load ptr, ptr %15, align 8, !tbaa !20
  %118 = call i32 @av_dict_set(ptr noundef %116, ptr noundef @.str.1, ptr noundef %117, i32 noundef 0)
  store i32 %118, ptr %20, align 4, !tbaa !21
  %119 = icmp slt i32 %118, 0
  br i1 %119, label %120, label %121

120:                                              ; preds = %115
  br label %143

121:                                              ; preds = %115
  %122 = load ptr, ptr %14, align 8, !tbaa !28
  %123 = load ptr, ptr %16, align 8, !tbaa !20
  %124 = call i32 @av_dict_set(ptr noundef %122, ptr noundef @.str.5, ptr noundef %123, i32 noundef 0)
  store i32 %124, ptr %20, align 4, !tbaa !21
  %125 = icmp slt i32 %124, 0
  br i1 %125, label %126, label %127

126:                                              ; preds = %121
  br label %143

127:                                              ; preds = %121
  %128 = load ptr, ptr %10, align 8, !tbaa !48
  %129 = load ptr, ptr %128, align 8, !tbaa !22
  %130 = load ptr, ptr %14, align 8, !tbaa !28
  %131 = call i32 @av_opt_set_dict(ptr noundef %129, ptr noundef %130)
  store i32 %131, ptr %20, align 4, !tbaa !21
  %132 = icmp slt i32 %131, 0
  br i1 %132, label %133, label %134

133:                                              ; preds = %127
  br label %143

134:                                              ; preds = %127
  %135 = load ptr, ptr %10, align 8, !tbaa !48
  %136 = load ptr, ptr %135, align 8, !tbaa !22
  %137 = load ptr, ptr %14, align 8, !tbaa !28
  %138 = call i32 @ffurl_connect(ptr noundef %136, ptr noundef %137)
  store i32 %138, ptr %20, align 4, !tbaa !21
  %139 = load i32, ptr %20, align 4, !tbaa !21
  %140 = icmp ne i32 %139, 0
  br i1 %140, label %142, label %141

141:                                              ; preds = %134
  store i32 0, ptr %9, align 4
  store i32 1, ptr %21, align 4
  br label %147

142:                                              ; preds = %134
  br label %143

143:                                              ; preds = %142, %133, %126, %120, %72, %52, %41
  %144 = load ptr, ptr %10, align 8, !tbaa !48
  %145 = call i32 @ffurl_closep(ptr noundef %144)
  %146 = load i32, ptr %20, align 4, !tbaa !21
  store i32 %146, ptr %9, align 4
  store i32 1, ptr %21, align 4
  br label %147

147:                                              ; preds = %143, %141, %29
  call void @llvm.lifetime.end.p0(i64 4, ptr %20) #10
  call void @llvm.lifetime.end.p0(i64 8, ptr %19) #10
  call void @llvm.lifetime.end.p0(i64 8, ptr %18) #10
  %148 = load i32, ptr %9, align 4
  ret i32 %148
}