; Function Attrs: nounwind uwtable
define i32 @ffurl_open_whitelist(ptr noundef %0, ptr noundef %1, i32 noundef %2, ptr noundef readonly captures(address_is_null) %3, ptr noundef %4, ptr noundef %5, ptr noundef %6, ptr noundef %7) local_unnamed_addr #3 {
  %9 = alloca ptr, align 8
  call void @llvm.lifetime.start.p0(i64 8, ptr nonnull %9) #12
  store ptr null, ptr %9, align 8, !tbaa !27
  %10 = tail call i32 @ffurl_alloc(ptr noundef %0, ptr noundef %1, i32 noundef %2, ptr noundef %3)
  %11 = icmp slt i32 %10, 0
  br i1 %11, label %65, label %12

12:                                               ; preds = %8
  %.not = icmp eq ptr %7, null
  br i1 %.not, label %17, label %13

13:                                               ; preds = %12
  %14 = load ptr, ptr %0, align 8, !tbaa !41
  %15 = tail call i32 @av_opt_copy(ptr noundef %14, ptr noundef nonnull %7) #12
  %16 = icmp slt i32 %15, 0
  br i1 %16, label %63, label %17

17:                                               ; preds = %13, %12
  %.not52 = icmp eq ptr %4, null
  br i1 %.not52, label %.critedge, label %18

18:                                               ; preds = %17
  %19 = load ptr, ptr %0, align 8, !tbaa !41
  %20 = tail call i32 @av_opt_set_dict(ptr noundef %19, ptr noundef nonnull %4) #12
  %21 = icmp slt i32 %20, 0
  br i1 %21, label %63, label %22

22:                                               ; preds = %18
  %23 = load ptr, ptr %0, align 8, !tbaa !41
  %24 = getelementptr inbounds nuw i8, ptr %23, i64 8
  %25 = load ptr, ptr %24, align 8, !tbaa !21
  %26 = getelementptr inbounds nuw i8, ptr %25, i64 120
  %27 = load ptr, ptr %26, align 8, !tbaa !68
  %.not53 = icmp eq ptr %27, null
  br i1 %.not53, label %.critedge, label %28

28:                                               ; preds = %22
  %29 = getelementptr inbounds nuw i8, ptr %23, i64 16
  %30 = load ptr, ptr %29, align 8, !tbaa !67
  %31 = tail call i32 @av_opt_set_dict(ptr noundef %30, ptr noundef nonnull %4) #12
  %32 = icmp slt i32 %31, 0
  br i1 %32, label %63, label %.critedge

.critedge:                                        ; preds = %17, %28, %22
  %spec.store.select = phi ptr [ %4, %28 ], [ %4, %22 ], [ %9, %17 ]
  %.not54 = icmp eq ptr %5, null
  br i1 %.not54, label %41, label %33

33:                                               ; preds = %.critedge
  %34 = load ptr, ptr %spec.store.select, align 8, !tbaa !27
  %35 = tail call ptr @av_dict_get(ptr noundef %34, ptr noundef nonnull @.str.1, ptr noundef null, i32 noundef 0) #12
  %.not55 = icmp eq ptr %35, null
  br i1 %.not55, label %41, label %36

36:                                               ; preds = %33
  %37 = getelementptr inbounds nuw i8, ptr %35, i64 8
  %38 = load ptr, ptr %37, align 8, !tbaa !30
  %39 = tail call i32 @strcmp(ptr noundef nonnull dereferenceable(1) %5, ptr noundef nonnull dereferenceable(1) %38) #13
  %.not56 = icmp eq i32 %39, 0
  br i1 %.not56, label %41, label %40

40:                                               ; preds = %36
  tail call void (ptr, i32, ptr, ...) @av_log(ptr noundef null, i32 noundef 0, ptr noundef nonnull @.str.2, ptr noundef nonnull @.str.13, ptr noundef nonnull @.str.4, i32 noundef 389) #12
  tail call void @abort() #14
  unreachable

41:                                               ; preds = %.critedge, %33, %36
  %.not57 = icmp eq ptr %6, null
  br i1 %.not57, label %50, label %42

42:                                               ; preds = %41
  %43 = load ptr, ptr %spec.store.select, align 8, !tbaa !27
  %44 = tail call ptr @av_dict_get(ptr noundef %43, ptr noundef nonnull @.str.5, ptr noundef null, i32 noundef 0) #12
  %.not58 = icmp eq ptr %44, null
  br i1 %.not58, label %50, label %45

45:                                               ; preds = %42
  %46 = getelementptr inbounds nuw i8, ptr %44, i64 8
  %47 = load ptr, ptr %46, align 8, !tbaa !30
  %48 = tail call i32 @strcmp(ptr noundef nonnull dereferenceable(1) %6, ptr noundef nonnull dereferenceable(1) %47) #13
  %.not59 = icmp eq i32 %48, 0
  br i1 %.not59, label %50, label %49

49:                                               ; preds = %45
  tail call void (ptr, i32, ptr, ...) @av_log(ptr noundef null, i32 noundef 0, ptr noundef nonnull @.str.2, ptr noundef nonnull @.str.14, ptr noundef nonnull @.str.4, i32 noundef 392) #12
  tail call void @abort() #14
  unreachable

50:                                               ; preds = %45, %42, %41
  %51 = call i32 @av_dict_set(ptr noundef nonnull %spec.store.select, ptr noundef nonnull @.str.1, ptr noundef %5, i32 noundef 0) #12
  %52 = icmp slt i32 %51, 0
  br i1 %52, label %63, label %53

53:                                               ; preds = %50
  %54 = call i32 @av_dict_set(ptr noundef nonnull %spec.store.select, ptr noundef nonnull @.str.5, ptr noundef %6, i32 noundef 0) #12
  %55 = icmp slt i32 %54, 0
  br i1 %55, label %63, label %56

56:                                               ; preds = %53
  %57 = load ptr, ptr %0, align 8, !tbaa !41
  %58 = call i32 @av_opt_set_dict(ptr noundef %57, ptr noundef nonnull %spec.store.select) #12
  %59 = icmp slt i32 %58, 0
  br i1 %59, label %63, label %60

60:                                               ; preds = %56
  %61 = load ptr, ptr %0, align 8, !tbaa !41
  %62 = call i32 @ffurl_connect(ptr noundef %61, ptr noundef nonnull %spec.store.select)
  %.not60 = icmp eq i32 %62, 0
  br i1 %.not60, label %65, label %63

63:                                               ; preds = %60, %56, %53, %50, %28, %18, %13
  %.0 = phi i32 [ %15, %13 ], [ %20, %18 ], [ %31, %28 ], [ %51, %50 ], [ %54, %53 ], [ %58, %56 ], [ %62, %60 ]
  %64 = call i32 @ffurl_closep(ptr noundef %0)
  br label %65

65:                                               ; preds = %60, %8, %63
  %.037 = phi i32 [ %.0, %63 ], [ %10, %8 ], [ 0, %60 ]
  call void @llvm.lifetime.end.p0(i64 8, ptr nonnull %9) #12
  ret i32 %.037
}